target datalayout = "e-m:e-p270:32:32-p271:32:32-p272:64:64-i64:64-i128:128-f80:128-n8:16:32:64-S128"
target triple = "x86_64-pc-linux-gnu"

%"struct.cv::Ptr" = type { %"class.std::shared_ptr" }
%"class.std::shared_ptr" = type { %"class.std::__shared_ptr" }
%"class.std::__shared_ptr" = type { ptr, %"class.std::__shared_count" }
%"class.std::__shared_count" = type { ptr }

@retina = hidden global %"struct.cv::Ptr" zeroinitializer, align 8
@retinaHcellsGain = hidden global i32 0, align 4
@localAdaptation_photoreceptors = hidden global i32 0, align 4
@localAdaptation_Gcells = hidden global i32 0, align 4

; Function Attrs: mustprogress nounwind uwtable
define linkonce_odr hidden noundef ptr @_ZNKSt12__shared_ptrIN2cv11bioinspired6RetinaELN9__gnu_cxx12_Lock_policyE2EE3getEv(ptr noundef nonnull align 8 dereferenceable(16) %0) #4 comdat align 2 {
  %2 = alloca ptr, align 8
  store ptr %0, ptr %2, align 8
  %3 = load ptr, ptr %2, align 8
  %4 = getelementptr inbounds %"class.std::__shared_ptr", ptr %3, i32 0, i32 0
  %5 = load ptr, ptr %4, align 8
  ret ptr %5
}

; Function Attrs: mustprogress nounwind uwtable
define linkonce_odr hidden noundef ptr @_ZNK2cv3PtrINS_11bioinspired6RetinaEEptEv(ptr noundef nonnull align 8 dereferenceable(16) %0) #4 comdat align 2 {
  %2 = alloca ptr, align 8
  store ptr %0, ptr %2, align 8
  %3 = load ptr, ptr %2, align 8
  %4 = call noundef ptr @_ZNKSt12__shared_ptrIN2cv11bioinspired6RetinaELN9__gnu_cxx12_Lock_policyE2EE3getEv(ptr noundef nonnull align 8 dereferenceable(16) %3) #3
  ret ptr %4
}

; Function Attrs: mustprogress uwtable
define internal void @_ZL27callBack_updateRetinaParamsiPv(i32 noundef %0, ptr noundef %1) #6 {
  %3 = alloca i32, align 4
  %4 = alloca ptr, align 8
  store i32 %0, ptr %3, align 4
  store ptr %1, ptr %4, align 8
  %5 = call noundef ptr @_ZNK2cv3PtrINS_11bioinspired6RetinaEEptEv(ptr noundef nonnull align 8 dereferenceable(16) @retina) #3
  %6 = load i32, ptr @localAdaptation_photoreceptors, align 4
  %7 = sitofp i32 %6 to double
  %8 = fdiv double %7, 2.000000e+02
  %9 = fptrunc double %8 to float
  %10 = load i32, ptr @retinaHcellsGain, align 4
  %11 = sitofp i32 %10 to float
  %12 = load i32, ptr @localAdaptation_Gcells, align 4
  %13 = sitofp i32 %12 to double
  %14 = fdiv double %13, 2.000000e+02
  %15 = fptrunc double %14 to float
  %16 = load ptr, ptr %5, align 8
  %17 = getelementptr inbounds ptr, ptr %16, i64 16
  %18 = load ptr, ptr %17, align 8
  call void %18(ptr noundef nonnull align 8 dereferenceable(8) %5, i1 noundef zeroext true, i1 noundef zeroext true, float noundef %9, float noundef 5.000000e-01, float noundef 0x3FDB851EC0000000, float noundef %11, float noundef 1.000000e+00, float noundef 7.000000e+00, float noundef %15)
  ret void
}