; Function Attrs: mustprogress uwtable
define internal void @_ZL27callBack_updateRetinaParamsiPv(i32 %0, ptr nocapture readnone %1) #6 {
  %3 = load ptr, ptr @retina, align 8
  %4 = load i32, ptr @localAdaptation_photoreceptors, align 4
  %5 = sitofp i32 %4 to double
  %6 = fdiv double %5, 2.000000e+02
  %7 = fptrunc double %6 to float
  %8 = load i32, ptr @retinaHcellsGain, align 4
  %9 = sitofp i32 %8 to float
  %10 = load i32, ptr @localAdaptation_Gcells, align 4
  %11 = sitofp i32 %10 to double
  %12 = fdiv double %11, 2.000000e+02
  %13 = fptrunc double %12 to float
  %14 = load ptr, ptr %3, align 8
  %15 = getelementptr inbounds i8, ptr %14, i64 128
  %16 = load ptr, ptr %15, align 8
  tail call void %16(ptr noundef nonnull align 8 dereferenceable(8) %3, i1 noundef zeroext true, i1 noundef zeroext true, float noundef %7, float noundef 5.000000e-01, float noundef 0x3FDB851EC0000000, float noundef %9, float noundef 1.000000e+00, float noundef 7.000000e+00, float noundef %13)
  ret void
}